; Function Attrs: mustprogress nofree norecurse nosync nounwind willreturn memory(argmem: write) uwtable
define dso_local range(i32 -3, 1) i32 @fdt_create(ptr noundef writeonly captures(none) %0, i32 noundef %1) local_unnamed_addr #0 {
  %3 = icmp slt i32 %1, 48
  br i1 %3, label %fdt_create_with_flags.exit, label %4

4:                                                ; preds = %2
  %5 = zext nneg i32 %1 to i64
  tail call void @llvm.memset.p0.i64(ptr align 1 %0, i8 0, i64 %5, i1 false)
  store i32 302117423, ptr %0, align 4
  %6 = getelementptr inbounds nuw i8, ptr %0, i64 20
  store i32 285212672, ptr %6, align 4
  %7 = getelementptr inbounds nuw i8, ptr %0, i64 24
  store i32 0, ptr %7, align 4
  %rev.i.i16.i = tail call noundef i32 @llvm.bswap.i32(i32 %1)
  %8 = getelementptr inbounds nuw i8, ptr %0, i64 4
  store i32 %rev.i.i16.i, ptr %8, align 4
  %9 = getelementptr inbounds nuw i8, ptr %0, i64 16
  store i32 805306368, ptr %9, align 4
  %10 = getelementptr inbounds nuw i8, ptr %0, i64 8
  store i32 805306368, ptr %10, align 4
  %11 = getelementptr inbounds nuw i8, ptr %0, i64 12
  store i32 0, ptr %11, align 4
  br label %fdt_create_with_flags.exit

fdt_create_with_flags.exit:                       ; preds = %2, %4
  %.0.i = phi i32 [ 0, %4 ], [ -3, %2 ]
  ret i32 %.0.i
}